; Function Attrs: nounwind uwtable
define ptr @l_Int_Linear_Poly_tail___boxed(ptr noundef %0) local_unnamed_addr #1 {
  %2 = ptrtoint ptr %0 to i64
  %3 = and i64 %2, 1
  %.not.i.i = icmp eq i64 %3, 0
  br i1 %.not.i.i, label %lean_obj_tag.exit.thread.i, label %lean_obj_tag.exit.i

lean_obj_tag.exit.i:                              ; preds = %1
  %4 = and i64 %2, 8589934590
  %5 = icmp eq i64 %4, 0
  br i1 %5, label %lean_dec.exit, label %13

lean_obj_tag.exit.thread.i:                       ; preds = %1
  %6 = getelementptr i8, ptr %0, i64 4
  %.val.i.i = load i32, ptr %6, align 4
  %7 = icmp ult i32 %.val.i.i, 16777216
  br i1 %7, label %.thread.i, label %13

.thread.i:                                        ; preds = %lean_obj_tag.exit.thread.i
  %.val.i8.i = load i32, ptr %0, align 4, !tbaa !6
  %8 = icmp sgt i32 %.val.i8.i, 0
  br i1 %8, label %9, label %11, !prof !5

9:                                                ; preds = %.thread.i
  %10 = add nuw i32 %.val.i8.i, 1
  store i32 %10, ptr %0, align 4, !tbaa !6
  br label %l_Int_Linear_Poly_tail.exit.thread

11:                                               ; preds = %.thread.i
  %.not.i9.i = icmp eq i32 %.val.i8.i, 0
  br i1 %.not.i9.i, label %lean_dec.exit, label %12

12:                                               ; preds = %11
  tail call void @lean_inc_ref_cold(ptr noundef nonnull %0) #5
  br label %l_Int_Linear_Poly_tail.exit.threadthread-pre-split

13:                                               ; preds = %lean_obj_tag.exit.thread.i, %lean_obj_tag.exit.i
  %14 = getelementptr inbounds nuw i8, ptr %0, i64 24
  %15 = load ptr, ptr %14, align 8, !tbaa !11
  %16 = ptrtoint ptr %15 to i64
  %17 = and i64 %16, 1
  %.not.i3 = icmp eq i64 %17, 0
  br i1 %.not.i3, label %18, label %l_Int_Linear_Poly_tail.exit

18:                                               ; preds = %13
  %.val.i10.i = load i32, ptr %15, align 4, !tbaa !6
  %19 = icmp sgt i32 %.val.i10.i, 0
  br i1 %19, label %20, label %22, !prof !5

20:                                               ; preds = %18
  %21 = add nuw i32 %.val.i10.i, 1
  store i32 %21, ptr %15, align 4, !tbaa !6
  br label %l_Int_Linear_Poly_tail.exit

22:                                               ; preds = %18
  %.not.i11.i = icmp eq i32 %.val.i10.i, 0
  br i1 %.not.i11.i, label %l_Int_Linear_Poly_tail.exit, label %23

23:                                               ; preds = %22
  tail call void @lean_inc_ref_cold(ptr noundef nonnull %15) #5
  br label %l_Int_Linear_Poly_tail.exit

l_Int_Linear_Poly_tail.exit:                      ; preds = %13, %20, %22, %23
  br i1 %.not.i.i, label %l_Int_Linear_Poly_tail.exit.threadthread-pre-split, label %lean_dec.exit

l_Int_Linear_Poly_tail.exit.threadthread-pre-split: ; preds = %l_Int_Linear_Poly_tail.exit, %12
  %.0.i5.ph = phi ptr [ %0, %12 ], [ %15, %l_Int_Linear_Poly_tail.exit ]
  %.pr = load i32, ptr %0, align 4, !tbaa !6
  br label %l_Int_Linear_Poly_tail.exit.thread

l_Int_Linear_Poly_tail.exit.thread:               ; preds = %l_Int_Linear_Poly_tail.exit.threadthread-pre-split, %9
  %24 = phi i32 [ %.pr, %l_Int_Linear_Poly_tail.exit.threadthread-pre-split ], [ %10, %9 ]
  %.0.i5 = phi ptr [ %.0.i5.ph, %l_Int_Linear_Poly_tail.exit.threadthread-pre-split ], [ %0, %9 ]
  %25 = icmp sgt i32 %24, 1
  br i1 %25, label %26, label %28, !prof !17

26:                                               ; preds = %l_Int_Linear_Poly_tail.exit.thread
  %27 = add nsw i32 %24, -1
  store i32 %27, ptr %0, align 4, !tbaa !6
  br label %lean_dec.exit

28:                                               ; preds = %l_Int_Linear_Poly_tail.exit.thread
  %.not.i = icmp eq i32 %24, 0
  br i1 %.not.i, label %lean_dec.exit, label %29

29:                                               ; preds = %28
  tail call void @lean_dec_ref_cold(ptr noundef nonnull %0) #5
  br label %lean_dec.exit

lean_dec.exit:                                    ; preds = %11, %lean_obj_tag.exit.i, %29, %28, %26, %l_Int_Linear_Poly_tail.exit
  %.0.i6 = phi ptr [ %15, %l_Int_Linear_Poly_tail.exit ], [ %.0.i5, %26 ], [ %.0.i5, %28 ], [ %.0.i5, %29 ], [ %0, %lean_obj_tag.exit.i ], [ %0, %11 ]
  ret ptr %.0.i6
}